target datalayout = "e-m:e-p270:32:32-p271:32:32-p272:64:64-i64:64-i128:128-f80:128-n8:16:32:64-S128"
target triple = "x86_64-pc-linux-gnu"

%struct.string_list = type { ptr, i64, i64, i8, ptr }
%struct.startup_info = type { i32, ptr, ptr }

@git_mailmap_blob = dso_local global ptr null, align 8
@.str.4 = private unnamed_addr constant [14 x i8] c"HEAD:.mailmap\00", align 1
@startup_info = external global ptr, align 8
@.str.5 = private unnamed_addr constant [9 x i8] c".mailmap\00", align 1
@git_mailmap_file = dso_local global ptr null, align 8

; Function Attrs: nounwind uwtable
define dso_local i32 @read_mailmap(ptr noundef %0) #0 {
  %2 = alloca ptr, align 8
  %3 = alloca i32, align 4
  store ptr %0, ptr %2, align 8, !tbaa !4
  call void @llvm.lifetime.start.p0(i64 4, ptr %3) #7
  store i32 0, ptr %3, align 4, !tbaa !11
  %4 = load ptr, ptr %2, align 8, !tbaa !4
  %5 = getelementptr inbounds nuw %struct.string_list, ptr %4, i32 0, i32 3
  %6 = load i8, ptr %5, align 8
  %7 = and i8 %6, -2
  %8 = or i8 %7, 1
  store i8 %8, ptr %5, align 8
  %9 = load ptr, ptr %2, align 8, !tbaa !4
  %10 = getelementptr inbounds nuw %struct.string_list, ptr %9, i32 0, i32 4
  store ptr @namemap_cmp, ptr %10, align 8, !tbaa !21
  %11 = load ptr, ptr @git_mailmap_blob, align 8, !tbaa !9
  %12 = icmp ne ptr %11, null
  br i1 %12, label %18, label %13

13:                                               ; preds = %1
  %14 = call i32 @is_bare_repository()
  %15 = icmp ne i32 %14, 0
  br i1 %15, label %16, label %18

16:                                               ; preds = %13
  %17 = call ptr @xstrdup(ptr noundef @.str.4)
  store ptr %17, ptr @git_mailmap_blob, align 8, !tbaa !9
  br label %18

18:                                               ; preds = %16, %13, %1
  %19 = load ptr, ptr @startup_info, align 8, !tbaa !25
  %20 = getelementptr inbounds nuw %struct.startup_info, ptr %19, i32 0, i32 0
  %21 = load i32, ptr %20, align 8, !tbaa !27
  %22 = icmp ne i32 %21, 0
  br i1 %22, label %23, label %26

23:                                               ; preds = %18
  %24 = call i32 @is_bare_repository()
  %25 = icmp ne i32 %24, 0
  br i1 %25, label %36, label %26

26:                                               ; preds = %23, %18
  %27 = load ptr, ptr %2, align 8, !tbaa !4
  %28 = load ptr, ptr @startup_info, align 8, !tbaa !25
  %29 = getelementptr inbounds nuw %struct.startup_info, ptr %28, i32 0, i32 0
  %30 = load i32, ptr %29, align 8, !tbaa !27
  %31 = icmp ne i32 %30, 0
  %32 = select i1 %31, i32 1, i32 0
  %33 = call i32 @read_mailmap_file(ptr noundef %27, ptr noundef @.str.5, i32 noundef %32)
  %34 = load i32, ptr %3, align 4, !tbaa !11
  %35 = or i32 %34, %33
  store i32 %35, ptr %3, align 4, !tbaa !11
  br label %36

36:                                               ; preds = %26, %23
  %37 = load ptr, ptr @startup_info, align 8, !tbaa !25
  %38 = getelementptr inbounds nuw %struct.startup_info, ptr %37, i32 0, i32 0
  %39 = load i32, ptr %38, align 8, !tbaa !27
  %40 = icmp ne i32 %39, 0
  br i1 %40, label %41, label %47

41:                                               ; preds = %36
  %42 = load ptr, ptr %2, align 8, !tbaa !4
  %43 = load ptr, ptr @git_mailmap_blob, align 8, !tbaa !9
  %44 = call i32 @read_mailmap_blob(ptr noundef %42, ptr noundef %43)
  %45 = load i32, ptr %3, align 4, !tbaa !11
  %46 = or i32 %45, %44
  store i32 %46, ptr %3, align 4, !tbaa !11
  br label %47

47:                                               ; preds = %41, %36
  %48 = load ptr, ptr %2, align 8, !tbaa !4
  %49 = load ptr, ptr @git_mailmap_file, align 8, !tbaa !9
  %50 = call i32 @read_mailmap_file(ptr noundef %48, ptr noundef %49, i32 noundef 0)
  %51 = load i32, ptr %3, align 4, !tbaa !11
  %52 = or i32 %51, %50
  store i32 %52, ptr %3, align 4, !tbaa !11
  %53 = load i32, ptr %3, align 4, !tbaa !11
  call void @llvm.lifetime.end.p0(i64 4, ptr %3) #7
  ret i32 %53
}