; Function Attrs: nounwind uwtable
define dso_local i32 @read_mailmap(ptr noundef initializes((32, 40)) %0) local_unnamed_addr #0 {
  %2 = getelementptr inbounds nuw i8, ptr %0, i64 24
  %3 = load i8, ptr %2, align 8
  %4 = or i8 %3, 1
  store i8 %4, ptr %2, align 8
  %5 = getelementptr inbounds nuw i8, ptr %0, i64 32
  store ptr @namemap_cmp, ptr %5, align 8, !tbaa !30
  %6 = load ptr, ptr @git_mailmap_blob, align 8, !tbaa !31
  %.not = icmp eq ptr %6, null
  br i1 %.not, label %7, label %11

7:                                                ; preds = %1
  %8 = tail call i32 @is_bare_repository() #11
  %.not8 = icmp eq i32 %8, 0
  br i1 %.not8, label %11, label %9

9:                                                ; preds = %7
  %10 = tail call ptr @xstrdup(ptr noundef nonnull @.str.4) #11
  store ptr %10, ptr @git_mailmap_blob, align 8, !tbaa !31
  br label %11

11:                                               ; preds = %9, %7, %1
  %12 = load ptr, ptr @startup_info, align 8, !tbaa !32
  %13 = load i32, ptr %12, align 8, !tbaa !34
  %.not9 = icmp eq i32 %13, 0
  br i1 %.not9, label %18, label %14

14:                                               ; preds = %11
  %15 = tail call i32 @is_bare_repository() #11
  %.not10 = icmp eq i32 %15, 0
  br i1 %.not10, label %._crit_edge, label %20

._crit_edge:                                      ; preds = %14
  %.pre = load ptr, ptr @startup_info, align 8, !tbaa !32
  %.pre13 = load i32, ptr %.pre, align 8, !tbaa !34
  %16 = icmp ne i32 %.pre13, 0
  %17 = zext i1 %16 to i32
  br label %18

18:                                               ; preds = %._crit_edge, %11
  %.not11 = phi i32 [ %17, %._crit_edge ], [ 0, %11 ]
  %19 = tail call i32 @read_mailmap_file(ptr noundef nonnull %0, ptr noundef nonnull @.str.5, i32 noundef %.not11)
  br label %20

20:                                               ; preds = %18, %14
  %.0 = phi i32 [ 0, %14 ], [ %19, %18 ]
  %21 = load ptr, ptr @startup_info, align 8, !tbaa !32
  %22 = load i32, ptr %21, align 8, !tbaa !34
  %.not12 = icmp eq i32 %22, 0
  br i1 %.not12, label %27, label %23

23:                                               ; preds = %20
  %24 = load ptr, ptr @git_mailmap_blob, align 8, !tbaa !31
  %25 = tail call i32 @read_mailmap_blob(ptr noundef nonnull %0, ptr noundef %24)
  %26 = or i32 %25, %.0
  br label %27

27:                                               ; preds = %23, %20
  %.1 = phi i32 [ %26, %23 ], [ %.0, %20 ]
  %28 = load ptr, ptr @git_mailmap_file, align 8, !tbaa !31
  %29 = tail call i32 @read_mailmap_file(ptr noundef nonnull %0, ptr noundef %28, i32 noundef 0)
  %30 = or i32 %29, %.1
  ret i32 %30
}